; Function Attrs: mustprogress uwtable
define noundef ptr @_ZN5ImGui13TableFindByIDEj(i32 noundef %0) local_unnamed_addr #0 {
  %2 = load ptr, ptr @GImGui, align 8, !tbaa !3
  %3 = getelementptr inbounds nuw i8, ptr %2, i64 8688
  %4 = tail call noundef i32 @_ZNK12ImGuiStorage6GetIntEji(ptr noundef nonnull align 8 dereferenceable(16) %3, i32 noundef %0, i32 noundef -1)
  %.not.i = icmp eq i32 %4, -1
  %5 = getelementptr inbounds nuw i8, ptr %2, i64 8680
  %6 = load ptr, ptr %5, align 8
  %7 = sext i32 %4 to i64
  %8 = getelementptr inbounds %struct.ImGuiTable, ptr %6, i64 %7
  %9 = select i1 %.not.i, ptr null, ptr %8
  ret ptr %9
}